; Function Attrs: mustprogress nofree norecurse nosync nounwind willreturn memory(read, inaccessiblemem: none) uwtable
define noundef zeroext i1 @_ZN7rocksdb14VersionBuilder28CheckConsistencyForNumLevelsEv(ptr nocapture noundef nonnull readonly align 8 dereferenceable(8) %this) local_unnamed_addr #5 align 2 {
entry:
  %0 = load ptr, ptr %this, align 8
  %has_invalid_levels_.i = getelementptr inbounds i8, ptr %0, i64 112
  %1 = load i8, ptr %has_invalid_levels_.i, align 8
  %2 = and i8 %1, 1
  %tobool.not.i = icmp eq i8 %2, 0
  br i1 %tobool.not.i, label %if.end.i, label %_ZNK7rocksdb14VersionBuilder3Rep28CheckConsistencyForNumLevelsEv.exit

if.end.i:                                         ; preds = %entry
  %_M_before_begin.i.i.i.i = getelementptr inbounds i8, ptr %0, i64 72
  br label %for.cond.i

for.cond.i:                                       ; preds = %for.body.i, %if.end.i
  %__begin2.sroa.0.0.in.i = phi ptr [ %_M_before_begin.i.i.i.i, %if.end.i ], [ %__begin2.sroa.0.0.i, %for.body.i ]
  %__begin2.sroa.0.0.i = load ptr, ptr %__begin2.sroa.0.0.in.i, align 8
  %cmp.i.not.i = icmp eq ptr %__begin2.sroa.0.0.i, null
  br i1 %cmp.i.not.i, label %_ZNK7rocksdb14VersionBuilder3Rep28CheckConsistencyForNumLevelsEv.exit, label %for.body.i

for.body.i:                                       ; preds = %for.cond.i
  %second.i = getelementptr inbounds i8, ptr %__begin2.sroa.0.0.i, i64 16
  %3 = load i64, ptr %second.i, align 8
  %cmp.not.i = icmp eq i64 %3, 0
  br i1 %cmp.not.i, label %for.cond.i, label %_ZNK7rocksdb14VersionBuilder3Rep28CheckConsistencyForNumLevelsEv.exit

_ZNK7rocksdb14VersionBuilder3Rep28CheckConsistencyForNumLevelsEv.exit: ; preds = %for.cond.i, %for.body.i, %entry
  %retval.0.i = phi i1 [ false, %entry ], [ %cmp.i.not.i, %for.body.i ], [ %cmp.i.not.i, %for.cond.i ]
  ret i1 %retval.0.i
}